Certificate:
    Data:
        Version: 3 (0x2)
        Serial Number: 9798600665013904035 (0x87fb9f63be0f62a3)
    Signature Algorithm: sha1WithRSAEncryption
        Issuer: C=US, ST=California, O=M2Crypto, CN=Marc Deslauriers
        Validity
            Not Before: Sep 25 18:01:31 2012 GMT
            Not After : Sep 25 18:01:31 2015 GMT
        Subject: C=US, ST=California, O=M2Crypto, CN=Marc Deslauriers
        Subject Public Key Info:
            Public Key Algorithm: rsaEncryption
                Public-Key: (2048 bit)
                Modulus:
                    00:ca:03:c6:13:6d:be:2a:e7:fa:df:74:7d:de:1d:
                    fc:6b:33:dd:5b:2c:57:1a:46:ac:bc:25:e8:1d:c9:
                    c5:eb:22:ad:2e:a0:9d:58:9e:5f:1d:8b:35:db:1d:
                    fa:e1:0f:33:14:16:d0:62:23:d6:92:b7:42:9d:36:
                    5f:a3:f4:ad:a0:db:7b:e6:5b:41:af:c3:1c:2d:c9:
                    a4:f2:a8:1d:5a:14:c7:1c:22:37:c2:55:7f:9a:26:
                    71:24:ba:9a:39:f2:d4:ea:ff:0a:45:d5:f7:53:65:
                    f0:d5:bd:95:48:c8:5f:73:4d:40:bf:02:ef:30:c2:
                    78:a1:f1:3d:27:03:c9:06:8d:b5:7b:f1:8e:1c:04:
                    28:4f:90:d5:35:f1:5e:26:5c:8b:ab:02:0c:fc:73:
                    54:bc:38:74:b7:61:22:90:cb:bb:45:df:2c:c8:cb:
                    f3:27:e4:b8:bc:44:5c:41:05:29:04:dd:eb:c7:32:
                    ef:b0:20:94:32:7c:4d:a8:10:01:c4:ef:91:65:97:
                    29:a0:21:1b:12:20:31:c9:4a:96:7c:18:99:26:d5:
                    c9:8a:fe:d0:59:30:7e:1f:f9:52:0d:1a:3e:21:c5:
                    07:99:91:f6:e7:71:e1:dc:8f:91:0d:3d:4a:58:f3:
                    07:7f:17:98:21:a8:fa:05:6a:27:5e:0c:c4:b6:ef:
                    1f:df
                Exponent: 65537 (0x10001)
        X509v3 extensions:
            X509v3 Subject Key Identifier: 
                7D:B0:B4:AC:6B:4C:F6:94:03:A3:13:3A:8C:B2:83:CD:A0:B4:45:4D
            X509v3 Authority Key Identifier: 
                keyid:7D:B0:B4:AC:6B:4C:F6:94:03:A3:13:3A:8C:B2:83:CD:A0:B4:45:4D

            X509v3 Basic Constraints: 
                CA:TRUE
    Signature Algorithm: sha1WithRSAEncryption
         a0:40:cf:ba:ce:40:c2:da:ab:91:81:36:eb:58:72:4c:10:37:
         35:c9:10:b3:b6:24:f1:86:40:87:cc:c9:1a:72:cc:fa:e3:80:
         9e:7b:ba:3d:96:3d:fb:70:f2:31:27:85:0c:91:42:1f:28:50:
         91:4c:d4:a4:44:63:7a:45:1b:50:f1:86:66:cf:3a:06:ea:52:
         6c:cf:0a:f9:ce:86:7d:63:32:2a:9d:0e:67:e4:7c:f2:f4:cf:
         90:bc:52:42:2b:7a:82:e5:bb:48:47:cf:96:c6:ee:bb:3a:2f:
         33:4c:99:01:da:f7:fb:8a:a0:44:dd:c0:59:ff:a6:99:7b:af:
         60:8b:61:b5:a4:9a:09:bb:86:7d:a4:c1:6a:28:aa:e0:e1:dc:
         c4:fd:2f:a8:4b:b7:ca:c1:fb:23:68:60:ce:d9:47:88:e1:b8:
         c0:86:6e:49:20:74:37:e8:73:fb:4e:88:1c:d8:9b:ca:d7:9d:
         d1:ba:99:53:71:ec:b6:6b:21:bd:d2:0e:8d:78:63:86:a6:fe:
         cd:b0:19:0c:3e:5a:f0:62:bc:78:97:b6:0c:0a:48:40:00:57:
         59:84:b9:15:36:a7:7f:34:dc:4c:8c:b2:7c:fb:6c:d1:ce:4c:
         cc:0b:86:75:a5:ed:bb:92:cc:cc:de:55:76:c6:2e:74:05:07:
         e9:3a:c0:18
-----BEGIN CERTIFICATE-----
MIIDczCCAlugAwIBAgIJAIf7n2O+D2KjMA0GCSqGSIb3DQEBBQUAMFAxCzAJBgNV
BAYTAlVTMRMwEQYDVQQIDApDYWxpZm9ybmlhMREwDwYDVQQKDAhNMkNyeXB0bzEZ
MBcGA1UEAwwQTWFyYyBEZXNsYXVyaWVyczAeFw0xMjA5MjUxODAxMzFaFw0xNTA5
MjUxODAxMzFaMFAxCzAJBgNVBAYTAlVTMRMwEQYDVQQIDApDYWxpZm9ybmlhMREw
DwYDVQQKDAhNMkNyeXB0bzEZMBcGA1UEAwwQTWFyYyBEZXNsYXVyaWVyczCCASIw
DQYJKoZIhvcNAQEBBQADggEPADCCAQoCggEBAMoDxhNtvirn+t90fd4d/Gsz3Vss
VxpGrLwl6B3JxesirS6gnVieXx2LNdsd+uEPMxQW0GIj1pK3Qp02X6P0raDbe+Zb
Qa/DHC3JpPKoHVoUxxwiN8JVf5omcSS6mjny1Or/CkXV91Nl8NW9lUjIX3NNQL8C
7zDCeKHxPScDyQaNtXvxjhwEKE+Q1TXxXiZci6sCDPxzVLw4dLdhIpDLu0XfLMjL
8yfkuLxEXEEFKQTd68cy77AglDJ8TagQAcTvkWWXKaAhGxIgMclKlnwYmSbVyYr+
0Fkwfh/5Ug0aPiHFB5mR9udx4dyPkQ09SljzB38XmCGo+gVqJ14MxLbvH98CAwEA
AaNQME4wHQYDVR0OBBYEFH2wtKxrTPaUA6MTOoyyg82gtEVNMB8GA1UdIwQYMBaA
FH2wtKxrTPaUA6MTOoyyg82gtEVNMAwGA1UdEwQFMAMBAf8wDQYJKoZIhvcNAQEF
BQADggEBAKBAz7rOQMLaq5GBNutYckwQNzXJELO2JPGGQIfMyRpyzPrjgJ57uj2W
Pftw8jEnhQyRQh8oUJFM1KREY3pFG1DxhmbPOgbqUmzPCvnOhn1jMiqdDmfkfPL0
z5C8UkIreoLlu0hHz5bG7rs6LzNMmQHa9/uKoETdwFn/ppl7r2CLYbWkmgm7hn2k
wWooquDh3MT9L6hLt8rB+yNoYM7ZR4jhuMCGbkkgdDfoc/tOiBzYm8rXndG6mVNx
7LZrIb3SDo14Y4am/s2wGQw+WvBivHiXtgwKSEAAV1mEuRU2p3803EyMsnz7bNHO
TMwLhnWl7buSzMzeVXbGLnQFB+k6wBg=
-----END CERTIFICATE-----
