Certificate:
    Data:
        Version: 3 (0x2)
        Serial Number: 9798600665013904039 (0x87fb9f63be0f62a7)
    Signature Algorithm: sha1WithRSAEncryption
        Issuer: C=US, ST=California, O=M2Crypto, CN=Marc Deslauriers
        Validity
            Not Before: Sep 25 18:06:21 2012 GMT
            Not After : Sep 25 18:06:21 2013 GMT
        Subject: C=US, ST=California, O=M2Crypto, CN=Recipient/emailAddress=recipient@example.com
        Subject Public Key Info:
            Public Key Algorithm: rsaEncryption
                Public-Key: (2048 bit)
                Modulus:
                    00:ba:5e:5a:c8:06:0c:49:f8:c7:5f:b4:77:da:7d:
                    46:05:73:35:aa:be:2f:ae:72:9b:e3:9e:91:de:99:
                    46:aa:f3:af:cf:c0:20:99:88:58:ff:40:b5:57:7a:
                    ab:5e:23:75:fe:6c:b8:41:63:81:e6:08:55:2b:80:
                    42:cd:a1:42:ce:0e:1f:21:35:4c:e1:95:d1:8b:cf:
                    b9:3e:de:ee:1c:dc:8b:d8:02:52:34:51:4e:2f:bd:
                    8e:4a:52:0a:5c:7a:ea:0e:82:7b:c7:cc:c9:c8:6b:
                    6e:83:ec:20:ea:ae:d0:e6:8f:ff:a1:14:58:5d:2c:
                    e6:6c:84:3c:cd:76:d4:19:5a:62:a5:75:64:17:4a:
                    c0:10:d5:44:40:d2:46:74:c3:3c:27:16:77:66:80:
                    52:33:03:45:7f:ee:22:98:bf:55:bc:ba:e1:c1:4a:
                    89:bf:fe:c5:29:34:9e:bc:8a:e0:9b:04:55:51:74:
                    1b:be:72:df:a4:db:04:ed:bf:3e:0c:dc:27:2d:c3:
                    72:6d:2f:a6:d5:5a:b1:d1:5f:73:5e:33:09:66:76:
                    34:f9:34:80:3c:2d:ee:c1:f0:62:57:e5:81:8d:3d:
                    17:a0:e3:a4:b9:da:b5:59:c3:c1:fd:b2:d4:74:3b:
                    bd:fa:25:9d:58:85:67:4a:89:0f:2d:d4:df:0b:31:
                    1b:85
                Exponent: 65537 (0x10001)
        X509v3 extensions:
            X509v3 Basic Constraints: 
                CA:FALSE
            Netscape Comment: 
                OpenSSL Generated Certificate
            X509v3 Subject Key Identifier: 
                8E:8A:C1:D4:0E:A8:98:76:C4:59:92:17:95:66:88:BF:19:1E:FB:C0
            X509v3 Authority Key Identifier: 
                keyid:7D:B0:B4:AC:6B:4C:F6:94:03:A3:13:3A:8C:B2:83:CD:A0:B4:45:4D

    Signature Algorithm: sha1WithRSAEncryption
         0f:c1:90:2a:52:21:50:15:50:0b:ae:a3:43:0a:01:29:7a:5e:
         c7:e4:ff:9c:54:96:95:db:c2:38:d4:62:ff:95:41:ac:8e:42:
         7f:bf:a5:8f:49:fb:c2:6d:31:28:94:ba:27:ed:af:20:36:bc:
         ac:c4:62:10:ba:19:9d:11:ed:22:ab:10:fd:9e:50:59:ed:44:
         2c:b9:a0:6e:81:90:9a:78:7c:ab:3e:93:4b:27:f4:03:5b:77:
         3d:02:23:a1:10:5c:1d:1a:6a:58:1b:e0:e8:c3:ee:17:d0:35:
         81:8b:f8:fe:43:8c:a2:72:a6:ba:eb:81:6d:07:bc:dd:b1:12:
         fc:43:af:0c:db:ae:86:9c:c2:47:54:3f:0b:06:c8:f2:a8:bd:
         07:97:aa:b8:29:7d:ae:f4:fe:da:e7:8c:a9:d5:56:42:6d:16:
         d7:7a:a5:41:0c:da:7a:ef:fe:04:54:9f:a6:ae:06:b1:f6:9c:
         44:35:7f:e0:a8:e9:95:2e:65:26:c7:61:a0:f6:c9:91:fb:33:
         38:8e:8a:fb:51:c6:44:64:c2:5e:e7:ce:fe:51:44:8e:34:d0:
         53:c0:e2:29:81:ab:bf:1f:1d:39:7e:dd:0d:3f:29:20:85:47:
         2a:0f:28:40:d2:b6:df:1d:80:b7:2c:98:27:fe:86:66:8f:94:
         b9:23:6a:93
-----BEGIN CERTIFICATE-----
MIIDvTCCAqWgAwIBAgIJAIf7n2O+D2KnMA0GCSqGSIb3DQEBBQUAMFAxCzAJBgNV
BAYTAlVTMRMwEQYDVQQIDApDYWxpZm9ybmlhMREwDwYDVQQKDAhNMkNyeXB0bzEZ
MBcGA1UEAwwQTWFyYyBEZXNsYXVyaWVyczAeFw0xMjA5MjUxODA2MjFaFw0xMzA5
MjUxODA2MjFaMG8xCzAJBgNVBAYTAlVTMRMwEQYDVQQIDApDYWxpZm9ybmlhMREw
DwYDVQQKDAhNMkNyeXB0bzESMBAGA1UEAwwJUmVjaXBpZW50MSQwIgYJKoZIhvcN
AQkBFhVyZWNpcGllbnRAZXhhbXBsZS5jb20wggEiMA0GCSqGSIb3DQEBAQUAA4IB
DwAwggEKAoIBAQC6XlrIBgxJ+MdftHfafUYFczWqvi+ucpvjnpHemUaq86/PwCCZ
iFj/QLVXeqteI3X+bLhBY4HmCFUrgELNoULODh8hNUzhldGLz7k+3u4c3IvYAlI0
UU4vvY5KUgpceuoOgnvHzMnIa26D7CDqrtDmj/+hFFhdLOZshDzNdtQZWmKldWQX
SsAQ1URA0kZ0wzwnFndmgFIzA0V/7iKYv1W8uuHBSom//sUpNJ68iuCbBFVRdBu+
ct+k2wTtvz4M3Cctw3JtL6bVWrHRX3NeMwlmdjT5NIA8Le7B8GJX5YGNPReg46S5
2rVZw8H9stR0O736JZ1YhWdKiQ8t1N8LMRuFAgMBAAGjezB5MAkGA1UdEwQCMAAw
LAYJYIZIAYb4QgENBB8WHU9wZW5TU0wgR2VuZXJhdGVkIENlcnRpZmljYXRlMB0G
A1UdDgQWBBSOisHUDqiYdsRZkheVZoi/GR77wDAfBgNVHSMEGDAWgBR9sLSsa0z2
lAOjEzqMsoPNoLRFTTANBgkqhkiG9w0BAQUFAAOCAQEAD8GQKlIhUBVQC66jQwoB
KXpex+T/nFSWldvCONRi/5VBrI5Cf7+lj0n7wm0xKJS6J+2vIDa8rMRiELoZnRHt
IqsQ/Z5QWe1ELLmgboGQmnh8qz6TSyf0A1t3PQIjoRBcHRpqWBvg6MPuF9A1gYv4
/kOMonKmuuuBbQe83bES/EOvDNuuhpzCR1Q/CwbI8qi9B5equCl9rvT+2ueMqdVW
Qm0W13qlQQzaeu/+BFSfpq4GsfacRDV/4KjplS5lJsdhoPbJkfszOI6K+1HGRGTC
XufO/lFEjjTQU8DiKYGrvx8dOX7dDT8pIIVHKg8oQNK23x2AtyyYJ/6GZo+UuSNq
kw==
-----END CERTIFICATE-----
