Certificate:
    Data:
        Version: 3 (0x2)
        Serial Number: 9798600665013904036 (0x87fb9f63be0f62a4)
    Signature Algorithm: sha1WithRSAEncryption
        Issuer: C=US, ST=California, O=M2Crypto, CN=Marc Deslauriers
        Validity
            Not Before: Sep 25 18:02:31 2012 GMT
            Not After : Sep 25 18:02:31 2013 GMT
        Subject: C=US, ST=California, O=M2Crypto, CN=localhost
        Subject Public Key Info:
            Public Key Algorithm: rsaEncryption
                Public-Key: (2048 bit)
                Modulus:
                    00:b6:30:60:72:af:d6:1b:ab:85:bc:82:77:81:ad:
                    94:f1:60:88:89:1c:31:58:66:73:88:ff:e7:f9:ea:
                    62:8a:fd:8b:eb:30:63:01:66:15:05:fc:bf:22:d1:
                    62:c8:57:55:4b:fc:73:2f:f4:34:71:52:04:8c:8b:
                    7d:2d:6c:6e:84:e5:ff:46:62:bf:18:c3:b4:fa:7d:
                    e1:2f:17:3d:d9:3c:9c:fe:fa:8b:a6:c4:a1:e2:ea:
                    24:2b:2e:24:7d:c2:bd:a9:43:5b:9b:78:f3:5a:91:
                    b5:b1:8f:66:11:3d:e3:82:bd:62:a8:74:d2:6e:4a:
                    83:8e:ee:81:fc:6c:27:ee:5c:7d:7d:57:7e:0a:a0:
                    c0:56:1f:d2:51:3f:6d:bc:6f:e3:3b:12:64:50:26:
                    cf:19:07:44:0e:2b:80:56:7f:31:91:cd:3e:e7:ef:
                    3b:2a:04:64:6c:5b:60:54:a7:ef:39:54:58:7b:cc:
                    94:30:10:74:2f:9e:ba:08:16:1b:ee:5a:fd:0d:e0:
                    23:67:6c:3c:4c:0b:e7:62:ae:28:ce:e6:d3:d4:10:
                    e9:b1:13:76:12:98:fb:91:43:a2:8c:42:34:a2:96:
                    cc:78:26:a8:76:13:8f:61:e5:e1:91:6e:fd:dc:41:
                    b1:45:c3:21:d1:e8:1a:61:e6:47:1c:7a:b2:00:b0:
                    37:4b
                Exponent: 65537 (0x10001)
        X509v3 extensions:
            X509v3 Basic Constraints: 
                CA:FALSE
            Netscape Comment: 
                OpenSSL Generated Certificate
            X509v3 Subject Key Identifier: 
                D6:61:1F:DE:60:AD:EA:53:B7:20:A8:60:90:F9:FD:C8:8E:4A:B2:F0
            X509v3 Authority Key Identifier: 
                keyid:7D:B0:B4:AC:6B:4C:F6:94:03:A3:13:3A:8C:B2:83:CD:A0:B4:45:4D

    Signature Algorithm: sha1WithRSAEncryption
         52:e2:13:ad:69:83:05:4f:4f:18:5d:6a:0b:65:ac:bb:62:34:
         4a:7d:cd:e8:6a:2f:cb:05:99:03:54:17:5e:b7:21:6a:e8:29:
         54:af:e9:4e:94:50:17:e3:d8:cc:97:24:1d:e1:ae:cc:de:9e:
         20:40:43:32:75:32:ab:73:e4:0e:a0:ee:be:71:a4:2b:91:7c:
         2e:a3:71:b0:41:cf:8d:2b:36:7f:79:e3:fd:ee:b3:00:95:d5:
         0c:7c:81:bd:2f:8b:37:a7:e3:c3:49:c0:36:81:83:65:d4:7e:
         24:f6:57:9e:f1:65:9c:98:2f:87:37:b1:c4:e5:3b:c7:88:9a:
         20:3f:46:57:0f:60:d6:cf:78:52:28:ce:ee:91:45:b0:a9:5d:
         8b:ae:93:39:cd:e3:9e:86:f6:ec:84:df:6a:d5:40:77:ca:ef:
         b2:a2:0e:c1:77:b2:a4:8b:52:07:c2:38:e0:15:5d:d9:d2:49:
         a2:be:87:2b:b9:36:1b:78:84:17:48:4c:d2:2a:6c:6d:fb:6d:
         d6:8d:e0:1d:35:0e:15:89:b9:9e:0f:c2:a1:03:a9:1d:03:36:
         d4:1c:61:e8:64:0f:a3:79:6f:1d:93:27:c8:65:30:a8:a2:03:
         92:27:56:b9:68:88:df:f1:06:9d:ad:eb:3f:00:6b:ef:b1:a4:
         9d:0b:85:5f
-----BEGIN CERTIFICATE-----
MIIDlzCCAn+gAwIBAgIJAIf7n2O+D2KkMA0GCSqGSIb3DQEBBQUAMFAxCzAJBgNV
BAYTAlVTMRMwEQYDVQQIDApDYWxpZm9ybmlhMREwDwYDVQQKDAhNMkNyeXB0bzEZ
MBcGA1UEAwwQTWFyYyBEZXNsYXVyaWVyczAeFw0xMjA5MjUxODAyMzFaFw0xMzA5
MjUxODAyMzFaMEkxCzAJBgNVBAYTAlVTMRMwEQYDVQQIDApDYWxpZm9ybmlhMREw
DwYDVQQKDAhNMkNyeXB0bzESMBAGA1UEAwwJbG9jYWxob3N0MIIBIjANBgkqhkiG
9w0BAQEFAAOCAQ8AMIIBCgKCAQEAtjBgcq/WG6uFvIJ3ga2U8WCIiRwxWGZziP/n
+epiiv2L6zBjAWYVBfy/ItFiyFdVS/xzL/Q0cVIEjIt9LWxuhOX/RmK/GMO0+n3h
Lxc92Tyc/vqLpsSh4uokKy4kfcK9qUNbm3jzWpG1sY9mET3jgr1iqHTSbkqDju6B
/Gwn7lx9fVd+CqDAVh/SUT9tvG/jOxJkUCbPGQdEDiuAVn8xkc0+5+87KgRkbFtg
VKfvOVRYe8yUMBB0L566CBYb7lr9DeAjZ2w8TAvnYq4ozubT1BDpsRN2Epj7kUOi
jEI0opbMeCaodhOPYeXhkW793EGxRcMh0egaYeZHHHqyALA3SwIDAQABo3sweTAJ
BgNVHRMEAjAAMCwGCWCGSAGG+EIBDQQfFh1PcGVuU1NMIEdlbmVyYXRlZCBDZXJ0
aWZpY2F0ZTAdBgNVHQ4EFgQU1mEf3mCt6lO3IKhgkPn9yI5KsvAwHwYDVR0jBBgw
FoAUfbC0rGtM9pQDoxM6jLKDzaC0RU0wDQYJKoZIhvcNAQEFBQADggEBAFLiE61p
gwVPTxhdagtlrLtiNEp9zehqL8sFmQNUF163IWroKVSv6U6UUBfj2MyXJB3hrsze
niBAQzJ1Mqtz5A6g7r5xpCuRfC6jcbBBz40rNn954/3uswCV1Qx8gb0vizen48NJ
wDaBg2XUfiT2V57xZZyYL4c3scTlO8eImiA/RlcPYNbPeFIozu6RRbCpXYuukznN
456G9uyE32rVQHfK77KiDsF3sqSLUgfCOOAVXdnSSaK+hyu5Nht4hBdITNIqbG37
bdaN4B01DhWJuZ4PwqEDqR0DNtQcYehkD6N5bx2TJ8hlMKiiA5InVrloiN/xBp2t
6z8Aa++xpJ0LhV8=
-----END CERTIFICATE-----
-----BEGIN RSA PRIVATE KEY-----
MIIEowIBAAKCAQEAtjBgcq/WG6uFvIJ3ga2U8WCIiRwxWGZziP/n+epiiv2L6zBj
AWYVBfy/ItFiyFdVS/xzL/Q0cVIEjIt9LWxuhOX/RmK/GMO0+n3hLxc92Tyc/vqL
psSh4uokKy4kfcK9qUNbm3jzWpG1sY9mET3jgr1iqHTSbkqDju6B/Gwn7lx9fVd+
CqDAVh/SUT9tvG/jOxJkUCbPGQdEDiuAVn8xkc0+5+87KgRkbFtgVKfvOVRYe8yU
MBB0L566CBYb7lr9DeAjZ2w8TAvnYq4ozubT1BDpsRN2Epj7kUOijEI0opbMeCao
dhOPYeXhkW793EGxRcMh0egaYeZHHHqyALA3SwIDAQABAoIBAQCrlWAgYw4IvT+U
zGL01KADvGCakNzAXqzNCAZXzrDEKgpOlCGKPbPrEaCJkB2yhN2mVLm/HgUN/Kqg
GvbngsmLjHkgtvs2vYqCp28exIrRP060rQ49H88/QDiUGj7v2ip5cSCjigPW9ofi
FCWSc3EDvo1eDbfpe2/vex0cuFfbGdWcgjn7lYEoUP5CqfmRlXqW+AUj0wHNMokG
M54tR4b8fAG3FBZ1gLfcDrWDqQtGZTnuvH2Zn/dGvsg/GlZAD6h4qfeZqtZxTB9L
PQ+jA7FKbA1UVZDkVrZcUf7orNQAR7uB4JGLGsxou9uidSyqIyYhBUm2ps2z0b5V
P+v3q1YhAoGBANp53WGSslyxiY31hRYS5yGYb3g1ke33NjllBoBuac9UCptS88RE
TfAmt7yQyqQ6IXCHaJQ4YB+sqCOY7XJRNbjqX7mBHAWmhIp+UCugyGzHekT+NG2q
uY+RHXBnZdzBfaFUaEVrbQrrCvj2gCclBC0a+xmHnqGuN9Ai4JlKAAeTAoGBANV7
AynXWoxMeV9LYID5doXO2x0powheKcZt3SteuTsJrbWPw/AZ3lDIHO0tNj9YJ7bj
arFYNtehvQfwUEiMo20y6ZJS8BzICwGUm1QsFtYDrpwA8Ub+bu9tJ93NpTwtRDjH
VY3Fl0wzEK1NFB8LhVokgzhciNAII0lH1V6R1/RpAoGAVgLOJiDDuXxnpAy5tWQB
vJcvo0qrxdyia1wbgCp325jBiD7TGzys1lPX2BPEw3zjN1MH1/qN1Up683C8YloY
ZVFYGEb9CjhxS7jIxTRKU5EA0PKnH1msLho6VctPLea7F+2ME3BkgHziV/trnn2T
NFK/8mATEqHs9TMV6yNX+aMCgYAZWjWC949KUB6t4X7Bcl7P/0PoT7SL3trpNMzq
RKKMz1Zw1HT5g6jyQQGmbRMfLLHyt0lJbGd+7jdLxQ9Tvlf+NOimNvFLCbq84lAc
C+xeWCuZXUdKHhdAmd79KVnxLpMGhy2y239fTkUxv5CfKzgX/3QR8nNQ+VZvcnd1
dq6F2QKBgGwyMnj+o1JlM0k4F395iG50jPS+fIAYnuUSaxsWbzuh07MwiLc3f/h6
+r70KCYPyM/24bc/7+CUQUPrmANdGr/XMjPLgvrZuTaAb+T9ovUtOGfByYVs0QWq
DMBoqT/OXZS+J6j8MKsTy+XLJHCc1yI7Zt8AGTCFwiSW00CBQjbX
-----END RSA PRIVATE KEY-----
