Certificate:
    Data:
        Version: 3 (0x2)
        Serial Number: 9798600665013904038 (0x87fb9f63be0f62a6)
    Signature Algorithm: sha1WithRSAEncryption
        Issuer: C=US, ST=California, O=M2Crypto, CN=Marc Deslauriers
        Validity
            Not Before: Sep 25 18:05:09 2012 GMT
            Not After : Sep 25 18:05:09 2013 GMT
        Subject: C=US, ST=California, O=M2Crypto, CN=Signer/emailAddress=signer@example.com
        Subject Public Key Info:
            Public Key Algorithm: rsaEncryption
                Public-Key: (2048 bit)
                Modulus:
                    00:be:06:3d:80:e1:7d:c3:62:63:1f:10:63:9d:1a:
                    d9:8e:16:6e:f9:f4:71:6d:d6:20:33:49:c7:3e:6b:
                    c6:a7:69:f1:c8:75:47:ef:28:f2:59:98:8f:2b:f0:
                    95:2c:27:7a:7d:6a:97:c5:21:6f:82:94:0b:71:74:
                    9d:cd:fa:ac:10:8a:27:e2:b0:1f:af:d8:21:8d:b4:
                    ac:32:62:54:f9:6f:11:73:6c:44:55:f8:43:95:e4:
                    29:95:01:68:f0:4f:48:9e:a0:d9:97:30:17:e2:9b:
                    f3:d5:ae:d4:8b:03:5e:2c:62:1f:dc:85:3a:15:ed:
                    d7:90:75:ef:ee:a4:57:2b:77:ab:4b:fe:e4:0a:53:
                    bf:18:b7:c5:8f:a5:d1:52:93:29:b6:54:3e:2c:df:
                    c1:dd:2e:1a:ce:d7:9e:a4:c6:e9:21:3c:13:10:60:
                    f0:21:26:c5:c0:c7:b1:0a:e0:f8:93:84:34:74:e6:
                    ae:41:86:fc:06:35:32:1c:e4:61:aa:a7:7d:40:36:
                    45:08:5f:7e:2f:c0:d7:d9:ae:4e:22:1b:fb:fe:e3:
                    d6:45:9a:18:77:2d:bb:b2:dd:c5:b1:fe:97:5b:e4:
                    5d:af:1a:c3:eb:6c:e8:4c:f5:93:ec:8e:28:31:15:
                    7c:51:50:1f:8d:a8:c7:07:bd:85:36:b6:93:d2:bd:
                    b7:67
                Exponent: 65537 (0x10001)
        X509v3 extensions:
            X509v3 Basic Constraints: 
                CA:FALSE
            Netscape Comment: 
                OpenSSL Generated Certificate
            X509v3 Subject Key Identifier: 
                BE:40:D0:B0:9E:A0:5A:4B:AA:80:2B:72:D0:5D:B4:A4:6F:B2:D4:7D
            X509v3 Authority Key Identifier: 
                keyid:7D:B0:B4:AC:6B:4C:F6:94:03:A3:13:3A:8C:B2:83:CD:A0:B4:45:4D

    Signature Algorithm: sha1WithRSAEncryption
         b7:1b:ba:84:c8:a1:cd:66:2b:56:da:ef:4c:94:fa:ca:b3:68:
         5d:e0:41:d9:b1:35:0d:ce:9b:6d:68:b0:d2:8c:1f:7f:7a:83:
         43:25:db:7d:a2:d7:d1:13:4b:9b:1a:90:59:0f:35:65:6e:24:
         bb:b6:8c:bc:f8:cc:54:06:d4:69:71:0a:da:2c:f1:32:c8:9b:
         5a:e9:21:9c:79:a0:45:79:da:20:e7:dc:72:0d:f9:75:5e:76:
         42:79:f0:38:0d:fb:9b:94:16:c0:23:19:ec:94:41:7d:c9:12:
         d3:d5:77:2e:ae:3d:2a:61:0b:c6:61:05:08:08:1e:80:05:4d:
         f4:04:e7:93:c7:10:65:27:8e:ec:15:e2:03:97:34:3d:19:c5:
         78:12:de:8e:a4:2a:b0:2d:6b:52:af:2a:f1:e3:87:93:42:60:
         44:ea:fc:1a:37:ac:df:01:34:cb:43:d1:e6:bc:a0:a5:c3:ad:
         5a:9c:50:a1:cb:11:2a:45:1d:14:39:82:85:7e:84:a6:25:61:
         69:5b:5a:61:48:13:c4:48:e1:b1:a5:22:1e:97:69:8b:db:fe:
         a4:cb:1a:d1:4d:9f:8a:dc:2b:8e:74:3d:56:72:98:ae:23:e4:
         d5:3c:5a:60:36:42:65:08:83:57:ec:34:95:12:ea:60:74:71:
         b7:f1:d4:b6
-----BEGIN CERTIFICATE-----
MIIDtzCCAp+gAwIBAgIJAIf7n2O+D2KmMA0GCSqGSIb3DQEBBQUAMFAxCzAJBgNV
BAYTAlVTMRMwEQYDVQQIDApDYWxpZm9ybmlhMREwDwYDVQQKDAhNMkNyeXB0bzEZ
MBcGA1UEAwwQTWFyYyBEZXNsYXVyaWVyczAeFw0xMjA5MjUxODA1MDlaFw0xMzA5
MjUxODA1MDlaMGkxCzAJBgNVBAYTAlVTMRMwEQYDVQQIDApDYWxpZm9ybmlhMREw
DwYDVQQKDAhNMkNyeXB0bzEPMA0GA1UEAwwGU2lnbmVyMSEwHwYJKoZIhvcNAQkB
FhJzaWduZXJAZXhhbXBsZS5jb20wggEiMA0GCSqGSIb3DQEBAQUAA4IBDwAwggEK
AoIBAQC+Bj2A4X3DYmMfEGOdGtmOFm759HFt1iAzScc+a8anafHIdUfvKPJZmI8r
8JUsJ3p9apfFIW+ClAtxdJ3N+qwQiifisB+v2CGNtKwyYlT5bxFzbERV+EOV5CmV
AWjwT0ieoNmXMBfim/PVrtSLA14sYh/chToV7deQde/upFcrd6tL/uQKU78Yt8WP
pdFSkym2VD4s38HdLhrO156kxukhPBMQYPAhJsXAx7EK4PiThDR05q5BhvwGNTIc
5GGqp31ANkUIX34vwNfZrk4iG/v+49ZFmhh3Lbuy3cWx/pdb5F2vGsPrbOhM9ZPs
jigxFXxRUB+NqMcHvYU2tpPSvbdnAgMBAAGjezB5MAkGA1UdEwQCMAAwLAYJYIZI
AYb4QgENBB8WHU9wZW5TU0wgR2VuZXJhdGVkIENlcnRpZmljYXRlMB0GA1UdDgQW
BBS+QNCwnqBaS6qAK3LQXbSkb7LUfTAfBgNVHSMEGDAWgBR9sLSsa0z2lAOjEzqM
soPNoLRFTTANBgkqhkiG9w0BAQUFAAOCAQEAtxu6hMihzWYrVtrvTJT6yrNoXeBB
2bE1Dc6bbWiw0owff3qDQyXbfaLX0RNLmxqQWQ81ZW4ku7aMvPjMVAbUaXEK2izx
MsibWukhnHmgRXnaIOfccg35dV52QnnwOA37m5QWwCMZ7JRBfckS09V3Lq49KmEL
xmEFCAgegAVN9ATnk8cQZSeO7BXiA5c0PRnFeBLejqQqsC1rUq8q8eOHk0JgROr8
Gjes3wE0y0PR5rygpcOtWpxQocsRKkUdFDmChX6EpiVhaVtaYUgTxEjhsaUiHpdp
i9v+pMsa0U2fitwrjnQ9VnKYriPk1TxaYDZCZQiDV+w0lRLqYHRxt/HUtg==
-----END CERTIFICATE-----
