Certificate:
    Data:
        Version: 3 (0x2)
        Serial Number: 9798600665013904037 (0x87fb9f63be0f62a5)
    Signature Algorithm: sha1WithRSAEncryption
        Issuer: C=US, ST=California, O=M2Crypto, CN=Marc Deslauriers
        Validity
            Not Before: Sep 25 18:03:35 2012 GMT
            Not After : Sep 25 18:03:35 2013 GMT
        Subject: C=US, ST=California, O=M2Crypto, CN=X509
        Subject Public Key Info:
            Public Key Algorithm: rsaEncryption
                Public-Key: (2048 bit)
                Modulus:
                    00:d8:65:6f:82:19:9d:10:e8:9b:79:1c:60:31:32:
                    3b:75:1a:ce:85:02:6f:97:b3:7c:a0:92:a2:91:03:
                    54:03:6a:9a:63:14:64:32:e3:92:ac:39:cf:6f:66:
                    25:95:d1:56:16:83:7b:23:2e:0f:3a:e8:a9:da:09:
                    93:8a:46:77:72:eb:72:fc:97:3a:21:04:c7:61:ef:
                    4b:32:0a:8b:2e:0e:37:9c:16:db:14:60:8e:6e:a3:
                    ff:92:c8:04:09:38:b8:cb:2a:54:02:78:52:30:d9:
                    2b:32:72:ce:ea:9b:48:c7:ed:5f:4c:36:c7:d3:6c:
                    91:4e:11:40:51:eb:8f:8c:65:86:bf:98:eb:79:d3:
                    d8:1d:f5:47:df:e3:0e:04:05:11:12:0d:1b:3f:dc:
                    b2:8a:48:2f:c3:e1:46:fb:6e:4f:11:c0:e8:a5:65:
                    52:95:5e:74:ce:75:69:e2:8d:6c:87:8b:aa:83:3f:
                    3b:b3:40:fb:82:22:9a:f6:dd:8d:ff:39:7b:9b:03:
                    10:87:5d:f5:3c:94:2b:6b:e8:f1:f5:9e:3a:4e:22:
                    02:6b:89:81:88:39:44:6b:64:32:1b:17:4a:d4:77:
                    6f:87:59:3d:f2:69:9c:27:aa:b4:99:ac:f9:54:57:
                    7c:79:ed:e1:67:71:b7:a8:fa:9f:83:fd:72:7a:4d:
                    5a:01
                Exponent: 65537 (0x10001)
        X509v3 extensions:
            X509v3 Basic Constraints: 
                CA:FALSE
            Netscape Comment: 
                OpenSSL Generated Certificate
            X509v3 Subject Key Identifier: 
                64:FA:F7:7E:C9:D4:7E:37:57:E3:E8:DA:47:24:30:5E:53:39:84:D0
            X509v3 Authority Key Identifier: 
                keyid:7D:B0:B4:AC:6B:4C:F6:94:03:A3:13:3A:8C:B2:83:CD:A0:B4:45:4D

    Signature Algorithm: sha1WithRSAEncryption
         37:1f:1f:54:da:f2:67:6c:00:eb:76:80:0b:46:a4:fb:59:c0:
         c1:d1:e6:d7:c4:2c:3a:95:33:d9:2e:16:61:d0:a3:fd:1f:f2:
         05:05:43:0a:cf:30:e2:6a:91:93:c5:17:99:43:cb:88:7c:2b:
         49:41:24:22:68:9e:2b:dc:65:6d:d4:53:18:b1:9c:03:dd:d8:
         4e:b2:c3:81:13:73:d4:38:79:61:b1:ab:1c:5a:4a:a7:0e:19:
         1f:7e:7f:53:a7:d9:40:68:c3:ae:a1:09:4b:9d:54:44:43:cf:
         05:7e:d9:85:7d:f7:dc:bc:1c:50:31:b6:0c:42:d0:4b:3d:0d:
         12:da:a1:0c:1f:7b:19:bc:df:c0:0c:a4:90:72:3c:f4:39:62:
         7a:9b:15:54:85:a3:62:d8:77:db:99:ba:98:36:e1:a7:23:e7:
         82:2d:26:5b:55:27:6c:37:9d:e1:87:30:61:75:f5:90:1e:d3:
         e1:65:06:bf:33:cd:41:85:59:ab:3a:31:cc:9f:23:0b:28:99:
         9b:4f:74:a3:c3:6e:a5:d6:73:04:46:9c:cf:52:91:8e:f4:1f:
         15:be:dc:63:58:ee:53:8f:b6:a8:25:9c:a6:19:41:1b:6b:9d:
         31:02:a7:cd:1d:7a:0f:59:4f:e5:4c:a8:90:5c:30:4f:f0:09:
         1d:ed:65:88
-----BEGIN CERTIFICATE-----
MIIDkjCCAnqgAwIBAgIJAIf7n2O+D2KlMA0GCSqGSIb3DQEBBQUAMFAxCzAJBgNV
BAYTAlVTMRMwEQYDVQQIDApDYWxpZm9ybmlhMREwDwYDVQQKDAhNMkNyeXB0bzEZ
MBcGA1UEAwwQTWFyYyBEZXNsYXVyaWVyczAeFw0xMjA5MjUxODAzMzVaFw0xMzA5
MjUxODAzMzVaMEQxCzAJBgNVBAYTAlVTMRMwEQYDVQQIDApDYWxpZm9ybmlhMREw
DwYDVQQKDAhNMkNyeXB0bzENMAsGA1UEAwwEWDUwOTCCASIwDQYJKoZIhvcNAQEB
BQADggEPADCCAQoCggEBANhlb4IZnRDom3kcYDEyO3UazoUCb5ezfKCSopEDVANq
mmMUZDLjkqw5z29mJZXRVhaDeyMuDzroqdoJk4pGd3LrcvyXOiEEx2HvSzIKiy4O
N5wW2xRgjm6j/5LIBAk4uMsqVAJ4UjDZKzJyzuqbSMftX0w2x9NskU4RQFHrj4xl
hr+Y63nT2B31R9/jDgQFERINGz/csopIL8PhRvtuTxHA6KVlUpVedM51aeKNbIeL
qoM/O7NA+4Iimvbdjf85e5sDEIdd9TyUK2vo8fWeOk4iAmuJgYg5RGtkMhsXStR3
b4dZPfJpnCeqtJms+VRXfHnt4Wdxt6j6n4P9cnpNWgECAwEAAaN7MHkwCQYDVR0T
BAIwADAsBglghkgBhvhCAQ0EHxYdT3BlblNTTCBHZW5lcmF0ZWQgQ2VydGlmaWNh
dGUwHQYDVR0OBBYEFGT6937J1H43V+Po2kckMF5TOYTQMB8GA1UdIwQYMBaAFH2w
tKxrTPaUA6MTOoyyg82gtEVNMA0GCSqGSIb3DQEBBQUAA4IBAQA3Hx9U2vJnbADr
doALRqT7WcDB0ebXxCw6lTPZLhZh0KP9H/IFBUMKzzDiapGTxReZQ8uIfCtJQSQi
aJ4r3GVt1FMYsZwD3dhOssOBE3PUOHlhsascWkqnDhkffn9Tp9lAaMOuoQlLnVRE
Q88FftmFfffcvBxQMbYMQtBLPQ0S2qEMH3sZvN/ADKSQcjz0OWJ6mxVUhaNi2Hfb
mbqYNuGnI+eCLSZbVSdsN53hhzBhdfWQHtPhZQa/M81BhVmrOjHMnyMLKJmbT3Sj
w26l1nMERpzPUpGO9B8VvtxjWO5Tj7aoJZymGUEba50xAqfNHXoPWU/lTKiQXDBP
8Akd7WWI
-----END CERTIFICATE-----
-----BEGIN RSA PRIVATE KEY-----
MIIEpAIBAAKCAQEA2GVvghmdEOibeRxgMTI7dRrOhQJvl7N8oJKikQNUA2qaYxRk
MuOSrDnPb2YlldFWFoN7Iy4POuip2gmTikZ3cuty/Jc6IQTHYe9LMgqLLg43nBbb
FGCObqP/ksgECTi4yypUAnhSMNkrMnLO6ptIx+1fTDbH02yRThFAUeuPjGWGv5jr
edPYHfVH3+MOBAUREg0bP9yyikgvw+FG+25PEcDopWVSlV50znVp4o1sh4uqgz87
s0D7giKa9t2N/zl7mwMQh131PJQra+jx9Z46TiICa4mBiDlEa2QyGxdK1Hdvh1k9
8mmcJ6q0maz5VFd8ee3hZ3G3qPqfg/1yek1aAQIDAQABAoIBAFiLKNVTJbGFfBhS
RAndQ/bmwRorpP2ts5EAbwRnGDlNpV5lOZqZA6r0/KvYYAitX0xXAEukzRaNnPJa
eMRbkQS00pgISQC5s9uezmXraoetyZNUxs/PsngTIsAsl3oue26mIznfgcH7GnHK
CGB2qZEkz5mf0KPyCIKpDGh4uoP3Rk5RNNc6sISW3M1lamIVBIAO2uK6e+ybG1Z8
2YBZPLHs+dG4ZP8dmUdiToxwRFXH46XVF9stMoA+yENnvL2m07viKZe1bOucrgZh
Ik/fem8uCGmqV/yIKR2GVSjNPOHJjLvfSgse/ZPevGO8MxdZMWsszZ4rwm6LBbH+
K3KYQAECgYEA63S/WV2Fz1v45BABq/sKOSrp5BM8cT4h3+tI3Cu+dZhtzVNdzFRX
9PGaBsncEHABfbMpCqzA7gQ9aQl0k5C4mM/msM+SBfpUaSiSRukgdWeYbxEJpx1E
xetIpaePatXSpL+SBCQr4qASmVkbvFJtqG/KLX3lX7Xb1X+MZ1UmdFECgYEA60b1
pUaenAKt3aleGd43kqk+c8x/lKDbFfDNuad9KqCj8wIfcPNoBezI2S4Wnz3qKVJL
XmNSGUcMN2fCLgIFTWIedcWNkhMcsDXAlweWHCFqfvcJTr5aKwwuAU8nl3NHerDA
ctUuXgIha+C25qxCViLmrHnNaDHsMLCzW/CSjrECgYEAso0L9hbHvCGAsmG5AtQS
QpvaVgyIT0/QnF9uFxhNDBwVWBkaDjL/qE32gaNd8FEfsFTGkMPEYjpw31A+SRD8
C1XNGNOvZj0Y+c28b22mIaH3pHIFIec+GeB8bLKOPXP8ktZ7Qgy0At1kfUlnkP3p
DkwHw0uvP09Hb7WToWCfEqECgYB0wsZtu1pDemDmvILiu5FAy5UeysIV9K5FeTff
hutrGEXE96y61VEuf5A9l83KQWPQFfMpaIj52nSJmoiXZJFVEfij4eKcN7fpCwQE
79LjKwI6+EY6OeVtr6G1LJ8tXhx/GvCnDHzyUoRbkS2z1JEnRjLMLbZumzfoAglA
+2cAQQKBgQCshnD0lqVE11SuWHlxVjLDVlmx2CD7BcGMetr7WjRiQBsaCa83stzl
kgXzPMyo89D/bkaTXNiVHn7hteIzy7uwV54QCNWK+O2JkxannsW3e5T8HM97L3dH
NPMhTlHPTUNQIThRPPv+ps5TYROAbLGhcCHEJV7sKfoag/lB+WAV0w==
-----END RSA PRIVATE KEY-----
